target datalayout = "e-m:e-p270:32:32-p271:32:32-p272:64:64-i64:64-i128:128-f80:128-n8:16:32:64-S128"
target triple = "x86_64-pc-linux-gnu"

%"class.std::__cxx11::basic_string" = type { %"struct.std::__cxx11::basic_string<char>::_Alloc_hider", i64, %union.anon }
%"struct.std::__cxx11::basic_string<char>::_Alloc_hider" = type { ptr }
%union.anon = type { i64, [8 x i8] }
%"class.rocksdb::PlainTableIndexBuilder::IndexRecordList" = type { i64, ptr, %"class.std::vector", i64 }
%"class.std::vector" = type { %"struct.std::_Vector_base" }
%"struct.std::_Vector_base" = type { %"struct.std::_Vector_base<rocksdb::PlainTableIndexBuilder::IndexRecord *, std::allocator<rocksdb::PlainTableIndexBuilder::IndexRecord *>>::_Vector_impl" }
%"struct.std::_Vector_base<rocksdb::PlainTableIndexBuilder::IndexRecord *, std::allocator<rocksdb::PlainTableIndexBuilder::IndexRecord *>>::_Vector_impl" = type { %"struct.std::_Vector_base<rocksdb::PlainTableIndexBuilder::IndexRecord *, std::allocator<rocksdb::PlainTableIndexBuilder::IndexRecord *>>::_Vector_impl_data" }
%"struct.std::_Vector_base<rocksdb::PlainTableIndexBuilder::IndexRecord *, std::allocator<rocksdb::PlainTableIndexBuilder::IndexRecord *>>::_Vector_impl_data" = type { ptr, ptr, ptr }
%"class.rocksdb::PlainTableIndexBuilder" = type { ptr, %"struct.rocksdb::ImmutableOptions", %"class.rocksdb::HistogramImpl", %"class.rocksdb::PlainTableIndexBuilder::IndexRecordList", i8, i8, i32, i32, i32, i64, i32, i32, ptr, double, i64, %"class.std::__cxx11::basic_string" }
%"struct.rocksdb::ImmutableOptions" = type <{ %"struct.rocksdb::ImmutableDBOptions", %"struct.rocksdb::ImmutableCFOptions.base", [7 x i8] }>
%"struct.rocksdb::ImmutableDBOptions" = type { i8, i8, i8, i8, i8, i8, i8, i8, i8, ptr, %"class.std::shared_ptr", %"class.std::shared_ptr.2", %"class.std::shared_ptr.5", i8, i32, %"class.std::shared_ptr.8", i8, %"class.std::vector.11", %"class.std::__cxx11::basic_string", %"class.std::__cxx11::basic_string", i64, i64, i64, i64, i64, i32, i64, i64, i64, i64, i8, i8, i8, i8, i8, i8, i8, i64, %"class.std::shared_ptr.19", i8, %"class.std::vector.22", i8, i8, i8, i8, i8, i64, i64, i8, i8, i8, i8, %"class.std::shared_ptr.27", ptr, i8, i8, i8, i8, i8, i8, i8, i8, i8, i8, i8, i8, i8, i8, i64, %"class.std::shared_ptr.30", i8, i32, i64, i8, %"class.std::__cxx11::basic_string", %"class.rocksdb::SmallEnumSet", i8, %"class.std::shared_ptr.33", i8, i64, i64, i64, i8, i8, %"class.std::shared_ptr.36", ptr, ptr, ptr }
%"class.std::shared_ptr" = type { %"class.std::__shared_ptr" }
%"class.std::__shared_ptr" = type { ptr, %"class.std::__shared_count" }
%"class.std::__shared_count" = type { ptr }
%"class.std::shared_ptr.2" = type { %"class.std::__shared_ptr.3" }
%"class.std::__shared_ptr.3" = type { ptr, %"class.std::__shared_count" }
%"class.std::shared_ptr.5" = type { %"class.std::__shared_ptr.6" }
%"class.std::__shared_ptr.6" = type { ptr, %"class.std::__shared_count" }
%"class.std::shared_ptr.8" = type { %"class.std::__shared_ptr.9" }
%"class.std::__shared_ptr.9" = type { ptr, %"class.std::__shared_count" }
%"class.std::vector.11" = type { %"struct.std::_Vector_base.12" }
%"struct.std::_Vector_base.12" = type { %"struct.std::_Vector_base<rocksdb::DbPath, std::allocator<rocksdb::DbPath>>::_Vector_impl" }
%"struct.std::_Vector_base<rocksdb::DbPath, std::allocator<rocksdb::DbPath>>::_Vector_impl" = type { %"struct.std::_Vector_base<rocksdb::DbPath, std::allocator<rocksdb::DbPath>>::_Vector_impl_data" }
%"struct.std::_Vector_base<rocksdb::DbPath, std::allocator<rocksdb::DbPath>>::_Vector_impl_data" = type { ptr, ptr, ptr }
%"class.std::shared_ptr.19" = type { %"class.std::__shared_ptr.20" }
%"class.std::__shared_ptr.20" = type { ptr, %"class.std::__shared_count" }
%"class.std::vector.22" = type { %"struct.std::_Vector_base.23" }
%"struct.std::_Vector_base.23" = type { %"struct.std::_Vector_base<std::shared_ptr<rocksdb::EventListener>, std::allocator<std::shared_ptr<rocksdb::EventListener>>>::_Vector_impl" }
%"struct.std::_Vector_base<std::shared_ptr<rocksdb::EventListener>, std::allocator<std::shared_ptr<rocksdb::EventListener>>>::_Vector_impl" = type { %"struct.std::_Vector_base<std::shared_ptr<rocksdb::EventListener>, std::allocator<std::shared_ptr<rocksdb::EventListener>>>::_Vector_impl_data" }
%"struct.std::_Vector_base<std::shared_ptr<rocksdb::EventListener>, std::allocator<std::shared_ptr<rocksdb::EventListener>>>::_Vector_impl_data" = type { ptr, ptr, ptr }
%"class.std::shared_ptr.27" = type { %"class.std::__shared_ptr.28" }
%"class.std::__shared_ptr.28" = type { ptr, %"class.std::__shared_count" }
%"class.std::shared_ptr.30" = type { %"class.std::__shared_ptr.31" }
%"class.std::__shared_ptr.31" = type { ptr, %"class.std::__shared_count" }
%"class.rocksdb::SmallEnumSet" = type { i64 }
%"class.std::shared_ptr.33" = type { %"class.std::__shared_ptr.34" }
%"class.std::__shared_ptr.34" = type { ptr, %"class.std::__shared_count" }
%"class.std::shared_ptr.36" = type { %"class.std::__shared_ptr.37" }
%"class.std::__shared_ptr.37" = type { ptr, %"class.std::__shared_count" }
%"struct.rocksdb::ImmutableCFOptions.base" = type <{ i8, i8, [6 x i8], ptr, %"class.rocksdb::InternalKeyComparator", %"class.std::shared_ptr.39", ptr, %"class.std::shared_ptr.42", i32, i32, i64, i8, [7 x i8], ptr, %"class.std::shared_ptr.45", %"class.std::vector.48", i32, i8, [3 x i8], i32, i8, i8, i8, i8, %"class.std::shared_ptr.53", %"class.std::vector.11", %"class.std::shared_ptr.56", %"class.std::shared_ptr.59", %"class.std::shared_ptr.27", i8 }>
%"class.rocksdb::InternalKeyComparator" = type { %"class.rocksdb::CompareInterface", %"class.rocksdb::UserComparatorWrapper" }
%"class.rocksdb::CompareInterface" = type { ptr }
%"class.rocksdb::UserComparatorWrapper" = type { ptr }
%"class.std::shared_ptr.39" = type { %"class.std::__shared_ptr.40" }
%"class.std::__shared_ptr.40" = type { ptr, %"class.std::__shared_count" }
%"class.std::shared_ptr.42" = type { %"class.std::__shared_ptr.43" }
%"class.std::__shared_ptr.43" = type { ptr, %"class.std::__shared_count" }
%"class.std::shared_ptr.45" = type { %"class.std::__shared_ptr.46" }
%"class.std::__shared_ptr.46" = type { ptr, %"class.std::__shared_count" }
%"class.std::vector.48" = type { %"struct.std::_Vector_base.49" }
%"struct.std::_Vector_base.49" = type { %"struct.std::_Vector_base<std::shared_ptr<rocksdb::TablePropertiesCollectorFactory>, std::allocator<std::shared_ptr<rocksdb::TablePropertiesCollectorFactory>>>::_Vector_impl" }
%"struct.std::_Vector_base<std::shared_ptr<rocksdb::TablePropertiesCollectorFactory>, std::allocator<std::shared_ptr<rocksdb::TablePropertiesCollectorFactory>>>::_Vector_impl" = type { %"struct.std::_Vector_base<std::shared_ptr<rocksdb::TablePropertiesCollectorFactory>, std::allocator<std::shared_ptr<rocksdb::TablePropertiesCollectorFactory>>>::_Vector_impl_data" }
%"struct.std::_Vector_base<std::shared_ptr<rocksdb::TablePropertiesCollectorFactory>, std::allocator<std::shared_ptr<rocksdb::TablePropertiesCollectorFactory>>>::_Vector_impl_data" = type { ptr, ptr, ptr }
%"class.std::shared_ptr.53" = type { %"class.std::__shared_ptr.54" }
%"class.std::__shared_ptr.54" = type { ptr, %"class.std::__shared_count" }
%"class.std::shared_ptr.56" = type { %"class.std::__shared_ptr.57" }
%"class.std::__shared_ptr.57" = type { ptr, %"class.std::__shared_count" }
%"class.std::shared_ptr.59" = type { %"class.std::__shared_ptr.60" }
%"class.std::__shared_ptr.60" = type { ptr, %"class.std::__shared_count" }
%"class.rocksdb::HistogramImpl" = type { %"class.rocksdb::Histogram", %"struct.rocksdb::HistogramStat", %"class.std::mutex" }
%"class.rocksdb::Histogram" = type { ptr }
%"struct.rocksdb::HistogramStat" = type { %"struct.std::atomic", %"struct.std::atomic", %"struct.std::atomic", %"struct.std::atomic", %"struct.std::atomic", [109 x %"struct.std::atomic"], i64 }
%"struct.std::atomic" = type { %"struct.std::__atomic_base" }
%"struct.std::__atomic_base" = type { i64 }
%"class.std::mutex" = type { %"class.std::__mutex_base" }
%"class.std::__mutex_base" = type { %union.pthread_mutex_t }
%union.pthread_mutex_t = type { %struct.__pthread_mutex_s }
%struct.__pthread_mutex_s = type { i32, i32, i32, i32, i32, i16, i16, %struct.__pthread_internal_list }
%struct.__pthread_internal_list = type { ptr, ptr }

; Function Attrs: mustprogress nounwind uwtable
define void @_ZN7rocksdb22PlainTableIndexBuilder13AllocateIndexEv(ptr noundef nonnull align 8 dereferenceable(1968) %0) #3 align 2 {
  %2 = alloca ptr, align 8
  %3 = alloca double, align 8
  store ptr %0, ptr %2, align 8, !tbaa !48
  %4 = load ptr, ptr %2, align 8
  %5 = getelementptr inbounds nuw %"class.rocksdb::PlainTableIndexBuilder", ptr %4, i32 0, i32 12
  %6 = load ptr, ptr %5, align 8, !tbaa !157
  %7 = icmp eq ptr %6, null
  br i1 %7, label %12, label %8

8:                                                ; preds = %1
  %9 = getelementptr inbounds nuw %"class.rocksdb::PlainTableIndexBuilder", ptr %4, i32 0, i32 13
  %10 = load double, ptr %9, align 8, !tbaa !158
  %11 = fcmp ole double %10, 0.000000e+00
  br i1 %11, label %12, label %14

12:                                               ; preds = %8, %1
  %13 = getelementptr inbounds nuw %"class.rocksdb::PlainTableIndexBuilder", ptr %4, i32 0, i32 10
  store i32 1, ptr %13, align 8, !tbaa !155
  br label %26

14:                                               ; preds = %8
  call void @llvm.lifetime.start.p0(i64 8, ptr %3) #7
  %15 = getelementptr inbounds nuw %"class.rocksdb::PlainTableIndexBuilder", ptr %4, i32 0, i32 13
  %16 = load double, ptr %15, align 8, !tbaa !158
  %17 = fdiv double 1.000000e+00, %16
  store double %17, ptr %3, align 8, !tbaa !159
  %18 = getelementptr inbounds nuw %"class.rocksdb::PlainTableIndexBuilder", ptr %4, i32 0, i32 6
  %19 = load i32, ptr %18, align 4, !tbaa !147
  %20 = uitofp i32 %19 to double
  %21 = load double, ptr %3, align 8, !tbaa !159
  %22 = fmul double %20, %21
  %23 = fptoui double %22 to i32
  %24 = add i32 %23, 1
  %25 = getelementptr inbounds nuw %"class.rocksdb::PlainTableIndexBuilder", ptr %4, i32 0, i32 10
  store i32 %24, ptr %25, align 8, !tbaa !155
  call void @llvm.lifetime.end.p0(i64 8, ptr %3) #7
  br label %26

26:                                               ; preds = %14, %12
  ret void
}