; Function Attrs: mustprogress nofree norecurse nosync nounwind willreturn memory(argmem: readwrite) uwtable
define void @_ZN7rocksdb22PlainTableIndexBuilder13AllocateIndexEv(ptr noundef nonnull align 8 captures(none) dereferenceable(1968) initializes((1904, 1908)) %0) local_unnamed_addr #5 align 2 {
  %2 = getelementptr inbounds nuw i8, ptr %0, i64 1912
  %3 = load ptr, ptr %2, align 8, !tbaa !150
  %4 = icmp eq ptr %3, null
  br i1 %4, label %17, label %5

5:                                                ; preds = %1
  %6 = getelementptr inbounds nuw i8, ptr %0, i64 1920
  %7 = load double, ptr %6, align 8, !tbaa !151
  %8 = fcmp ugt double %7, 0.000000e+00
  br i1 %8, label %9, label %17

9:                                                ; preds = %5
  %10 = fdiv double 1.000000e+00, %7
  %11 = getelementptr inbounds nuw i8, ptr %0, i64 1884
  %12 = load i32, ptr %11, align 4, !tbaa !142
  %13 = uitofp i32 %12 to double
  %14 = fmul double %10, %13
  %15 = fptoui double %14 to i32
  %16 = add i32 %15, 1
  br label %17

17:                                               ; preds = %1, %5, %9
  %.sink = phi i32 [ %16, %9 ], [ 1, %5 ], [ 1, %1 ]
  %18 = getelementptr inbounds nuw i8, ptr %0, i64 1904
  store i32 %.sink, ptr %18, align 8, !tbaa !152
  ret void
}